target datalayout = "e-m:e-p270:32:32-p271:32:32-p272:64:64-i64:64-i128:128-f80:128-n8:16:32:64-S128"
target triple = "x86_64-pc-linux-gnu"

%struct.pmix_list_t = type { %struct.pmix_object_t, %struct.pmix_list_item_t, i64 }
%struct.pmix_object_t = type { %union.pthread_mutex_t, ptr, i32, %struct.pmix_tma }
%union.pthread_mutex_t = type { %struct.__pthread_mutex_s }
%struct.__pthread_mutex_s = type { i32, i32, i32, i32, i32, i16, i16, %struct.__pthread_internal_list }
%struct.__pthread_internal_list = type { ptr, ptr }
%struct.pmix_tma = type { ptr, ptr, ptr, ptr, ptr, ptr, ptr, ptr }
%struct.pmix_list_item_t = type { %struct.pmix_object_t, ptr, ptr, i32 }
%struct.timeval = type { i64, i64 }
%struct.event = type { %struct.event_callback, %union.anon.0, i32, ptr, %union.anon.2, i16, i16, %struct.timeval }
%struct.event_callback = type { %struct.anon, i16, i8, i8, %union.anon, ptr }
%struct.anon = type { ptr, ptr }
%union.anon = type { ptr }
%union.anon.0 = type { %struct.anon.1 }
%struct.anon.1 = type { ptr, ptr }
%union.anon.2 = type { %struct.anon.3 }
%struct.anon.3 = type { %struct.anon.4, %struct.timeval }
%struct.anon.4 = type { ptr, ptr }
%struct.pmix_class_t = type { ptr, ptr, ptr, ptr, i32, i32, ptr, ptr, i64 }
%struct.pmix_lock_t = type { i32, %struct.pmix_mutex_t, %union.pthread_cond_t, i8 }
%struct.pmix_mutex_t = type { %struct.pmix_object_t, %union.pthread_mutex_t }
%union.pthread_cond_t = type { %struct.__pthread_cond_s }
%struct.__pthread_cond_s = type { %union.__atomic_wide_counter, %union.__atomic_wide_counter, [2 x i32], [2 x i32], i32, i32, [2 x i32] }
%union.__atomic_wide_counter = type { i64 }
%struct.pmix_query_caddy_t = type { %struct.pmix_object_t, %struct.event, %struct.pmix_lock_t, i8, i32, ptr, i64, ptr, i64, ptr, ptr, i64, i64, %struct.pmix_list_t, i64, i64, %struct.pmix_byte_object, ptr, ptr, ptr, ptr, ptr, ptr }
%struct.pmix_byte_object = type { ptr, i64 }

@.str.74 = private unnamed_addr constant [21 x i8] c"pthread_mutex_lock()\00", align 1

; Function Attrs: inlinehint nounwind uwtable
define internal void @pmix_tma_free(ptr noundef %0, ptr noundef %1) #6 {
  %3 = alloca ptr, align 8
  %4 = alloca ptr, align 8
  store ptr %0, ptr %3, align 8, !tbaa !118
  store ptr %1, ptr %4, align 8, !tbaa !110
  %5 = load ptr, ptr %3, align 8, !tbaa !118
  %6 = icmp ne ptr null, %5
  br i1 %6, label %7, label %13

7:                                                ; preds = %2
  %8 = load ptr, ptr %3, align 8, !tbaa !118
  %9 = getelementptr inbounds nuw %struct.pmix_tma, ptr %8, i32 0, i32 5
  %10 = load ptr, ptr %9, align 8, !tbaa !195
  %11 = load ptr, ptr %3, align 8, !tbaa !118
  %12 = load ptr, ptr %4, align 8, !tbaa !110
  call void %10(ptr noundef %11, ptr noundef %12)
  br label %15

13:                                               ; preds = %2
  %14 = load ptr, ptr %4, align 8, !tbaa !110
  call void @free(ptr noundef %14) #13
  br label %15

15:                                               ; preds = %13, %7
  ret void
}

; Function Attrs: inlinehint nounwind uwtable
define internal void @pmix_obj_run_destructors(ptr noundef %0) #6 {
  %2 = alloca ptr, align 8
  %3 = alloca ptr, align 8
  store ptr %0, ptr %2, align 8, !tbaa !116
  call void @llvm.lifetime.start.p0(i64 8, ptr %3) #13
  %4 = load ptr, ptr %2, align 8, !tbaa !116
  %5 = getelementptr inbounds nuw %struct.pmix_object_t, ptr %4, i32 0, i32 1
  %6 = load ptr, ptr %5, align 8, !tbaa !96
  %7 = getelementptr inbounds nuw %struct.pmix_class_t, ptr %6, i32 0, i32 7
  %8 = load ptr, ptr %7, align 8, !tbaa !134
  store ptr %8, ptr %3, align 8, !tbaa !110
  br label %9

9:                                                ; preds = %13, %1
  %10 = load ptr, ptr %3, align 8, !tbaa !110
  %11 = load ptr, ptr %10, align 8, !tbaa !110
  %12 = icmp ne ptr null, %11
  br i1 %12, label %13, label %19

13:                                               ; preds = %9
  %14 = load ptr, ptr %3, align 8, !tbaa !110
  %15 = load ptr, ptr %14, align 8, !tbaa !110
  %16 = load ptr, ptr %2, align 8, !tbaa !116
  call void %15(ptr noundef %16)
  %17 = load ptr, ptr %3, align 8, !tbaa !110
  %18 = getelementptr inbounds nuw ptr, ptr %17, i32 1
  store ptr %18, ptr %3, align 8, !tbaa !110
  br label %9, !llvm.loop !135

19:                                               ; preds = %9
  call void @llvm.lifetime.end.p0(i64 8, ptr %3) #13
  ret void
}

; Function Attrs: alwaysinline nounwind uwtable
define internal i32 @pmix_obj_update(ptr noundef %0, i32 noundef %1) #9 {
  %3 = alloca ptr, align 8
  %4 = alloca i32, align 4
  %5 = alloca i32, align 4
  store ptr %0, ptr %3, align 8, !tbaa !116
  store i32 %1, ptr %4, align 4, !tbaa !60
  call void @llvm.lifetime.start.p0(i64 4, ptr %5) #13
  %6 = load ptr, ptr %3, align 8, !tbaa !116
  %7 = getelementptr inbounds nuw %struct.pmix_object_t, ptr %6, i32 0, i32 0
  %8 = call i32 @pthread_mutex_lock(ptr noundef %7) #13
  store i32 %8, ptr %5, align 4, !tbaa !60
  %9 = load i32, ptr %5, align 4, !tbaa !60
  %10 = icmp eq i32 %9, 35
  br i1 %10, label %11, label %14

11:                                               ; preds = %2
  %12 = load i32, ptr %5, align 4, !tbaa !60
  %13 = call ptr @__errno_location() #15
  store i32 %12, ptr %13, align 4, !tbaa !60
  call void @perror(ptr noundef @.str.74)
  call void @abort() #16
  unreachable

14:                                               ; preds = %2
  %15 = load i32, ptr %4, align 4, !tbaa !60
  %16 = load ptr, ptr %3, align 8, !tbaa !116
  %17 = getelementptr inbounds nuw %struct.pmix_object_t, ptr %16, i32 0, i32 2
  %18 = load i32, ptr %17, align 8, !tbaa !97
  %19 = add nsw i32 %18, %15
  store i32 %19, ptr %17, align 8, !tbaa !97
  store i32 %19, ptr %5, align 4, !tbaa !60
  %20 = load ptr, ptr %3, align 8, !tbaa !116
  %21 = getelementptr inbounds nuw %struct.pmix_object_t, ptr %20, i32 0, i32 0
  %22 = call i32 @pthread_mutex_unlock(ptr noundef %21) #13
  %23 = load i32, ptr %5, align 4, !tbaa !60
  call void @llvm.lifetime.end.p0(i64 4, ptr %5) #13
  ret i32 %23
}

; Function Attrs: nounwind uwtable
define internal void @_local_relcb(ptr noundef %0) #0 {
  %2 = alloca ptr, align 8
  %3 = alloca ptr, align 8
  %4 = alloca ptr, align 8
  store ptr %0, ptr %2, align 8, !tbaa !110
  call void @llvm.lifetime.start.p0(i64 8, ptr %3) #13
  %5 = load ptr, ptr %2, align 8, !tbaa !110
  store ptr %5, ptr %3, align 8, !tbaa !110
  %6 = load ptr, ptr %3, align 8, !tbaa !110
  %7 = getelementptr inbounds nuw %struct.pmix_query_caddy_t, ptr %6, i32 0, i32 9
  %8 = load ptr, ptr %7, align 8, !tbaa !188
  %9 = icmp ne ptr null, %8
  br i1 %9, label %10, label %22

10:                                               ; preds = %1
  br label %11

11:                                               ; preds = %10
  %12 = load ptr, ptr %3, align 8, !tbaa !110
  %13 = getelementptr inbounds nuw %struct.pmix_query_caddy_t, ptr %12, i32 0, i32 9
  %14 = load ptr, ptr %13, align 8, !tbaa !188
  %15 = load ptr, ptr %3, align 8, !tbaa !110
  %16 = getelementptr inbounds nuw %struct.pmix_query_caddy_t, ptr %15, i32 0, i32 11
  %17 = load i64, ptr %16, align 8, !tbaa !184
  call void @PMIx_Info_free(ptr noundef %14, i64 noundef %17)
  %18 = load ptr, ptr %3, align 8, !tbaa !110
  %19 = getelementptr inbounds nuw %struct.pmix_query_caddy_t, ptr %18, i32 0, i32 9
  store ptr null, ptr %19, align 8, !tbaa !188
  br label %20

20:                                               ; preds = %11
  br label %21

21:                                               ; preds = %20
  br label %22

22:                                               ; preds = %21, %1
  br label %23

23:                                               ; preds = %22
  call void @llvm.lifetime.start.p0(i64 8, ptr %4) #13
  %24 = load ptr, ptr %3, align 8, !tbaa !110
  store ptr %24, ptr %4, align 8, !tbaa !116
  %25 = load ptr, ptr %4, align 8, !tbaa !116
  %26 = call i32 @pmix_obj_update(ptr noundef %25, i32 noundef -1)
  %27 = icmp eq i32 0, %26
  br i1 %27, label %28, label %42

28:                                               ; preds = %23
  %29 = load ptr, ptr %4, align 8, !tbaa !116
  call void @pmix_obj_run_destructors(ptr noundef %29)
  %30 = load ptr, ptr %4, align 8, !tbaa !116
  %31 = getelementptr inbounds nuw %struct.pmix_object_t, ptr %30, i32 0, i32 3
  %32 = getelementptr inbounds nuw %struct.pmix_tma, ptr %31, i32 0, i32 5
  %33 = load ptr, ptr %32, align 8, !tbaa !125
  %34 = icmp ne ptr null, %33
  br i1 %34, label %35, label %39

35:                                               ; preds = %28
  %36 = load ptr, ptr %4, align 8, !tbaa !116
  %37 = getelementptr inbounds nuw %struct.pmix_object_t, ptr %36, i32 0, i32 3
  %38 = load ptr, ptr %3, align 8, !tbaa !110
  call void @pmix_tma_free(ptr noundef %37, ptr noundef %38)
  br label %41

39:                                               ; preds = %28
  %40 = load ptr, ptr %3, align 8, !tbaa !110
  call void @free(ptr noundef %40) #13
  br label %41

41:                                               ; preds = %39, %35
  store ptr null, ptr %3, align 8, !tbaa !110
  br label %42

42:                                               ; preds = %41, %23
  call void @llvm.lifetime.end.p0(i64 8, ptr %4) #13
  br label %43

43:                                               ; preds = %42
  br label %44

44:                                               ; preds = %43
  call void @llvm.lifetime.end.p0(i64 8, ptr %3) #13
  ret void
}