; Function Attrs: nounwind uwtable
define internal void @_local_relcb(ptr noundef %0) #0 {
  %2 = getelementptr inbounds nuw i8, ptr %0, i64 512
  %3 = load ptr, ptr %2, align 8, !tbaa !158
  %.not = icmp eq ptr %3, null
  br i1 %.not, label %7, label %4

4:                                                ; preds = %1
  %5 = getelementptr inbounds nuw i8, ptr %0, i64 528
  %6 = load i64, ptr %5, align 8, !tbaa !153
  tail call void @PMIx_Info_free(ptr noundef nonnull %3, i64 noundef %6) #20
  store ptr null, ptr %2, align 8, !tbaa !158
  br label %7

7:                                                ; preds = %1, %4
  %8 = tail call i32 @pthread_mutex_lock(ptr noundef nonnull %0) #20
  %9 = icmp eq i32 %8, 35
  br i1 %9, label %10, label %pmix_obj_update.exit

10:                                               ; preds = %7
  %11 = tail call ptr @__errno_location() #22
  store i32 35, ptr %11, align 4, !tbaa !77
  tail call void @perror(ptr noundef nonnull @.str.74) #24
  tail call void @abort() #25
  unreachable

pmix_obj_update.exit:                             ; preds = %7
  %12 = getelementptr inbounds nuw i8, ptr %0, i64 48
  %13 = load i32, ptr %12, align 8, !tbaa !81
  %14 = add nsw i32 %13, -1
  store i32 %14, ptr %12, align 8, !tbaa !81
  %15 = tail call i32 @pthread_mutex_unlock(ptr noundef nonnull %0) #20
  %16 = icmp eq i32 %14, 0
  br i1 %16, label %17, label %31

17:                                               ; preds = %pmix_obj_update.exit
  %18 = getelementptr inbounds nuw i8, ptr %0, i64 40
  %19 = load ptr, ptr %18, align 8, !tbaa !80
  %20 = getelementptr inbounds nuw i8, ptr %19, i64 48
  %21 = load ptr, ptr %20, align 8, !tbaa !94
  %22 = load ptr, ptr %21, align 8, !tbaa !83
  %.not6.i = icmp eq ptr %22, null
  br i1 %.not6.i, label %pmix_obj_run_destructors.exit, label %.lr.ph.i

.lr.ph.i:                                         ; preds = %17, %.lr.ph.i
  %23 = phi ptr [ %25, %.lr.ph.i ], [ %22, %17 ]
  %.07.i = phi ptr [ %24, %.lr.ph.i ], [ %21, %17 ]
  tail call void %23(ptr noundef nonnull %0) #20
  %24 = getelementptr inbounds nuw i8, ptr %.07.i, i64 8
  %25 = load ptr, ptr %24, align 8, !tbaa !83
  %.not.i = icmp eq ptr %25, null
  br i1 %.not.i, label %pmix_obj_run_destructors.exit, label %.lr.ph.i, !llvm.loop !95

pmix_obj_run_destructors.exit:                    ; preds = %.lr.ph.i, %17
  %26 = getelementptr inbounds nuw i8, ptr %0, i64 96
  %27 = load ptr, ptr %26, align 8, !tbaa !161
  %.not12 = icmp eq ptr %27, null
  br i1 %.not12, label %30, label %28

28:                                               ; preds = %pmix_obj_run_destructors.exit
  %29 = getelementptr inbounds nuw i8, ptr %0, i64 56
  tail call void %27(ptr noundef nonnull %29, ptr noundef nonnull %0) #20
  br label %31

30:                                               ; preds = %pmix_obj_run_destructors.exit
  tail call void @free(ptr noundef nonnull %0) #20
  br label %31

31:                                               ; preds = %28, %30, %pmix_obj_update.exit
  ret void
}